; Function Attrs: mustprogress uwtable
define internal void @_ZL15eventfd_destroyP14grpc_wakeup_fd(ptr noundef readonly captures(none) %0) #3 {
  %2 = load i32, ptr %0, align 4, !tbaa !3
  %.not = icmp eq i32 %2, 0
  br i1 %.not, label %5, label %3

3:                                                ; preds = %1
  %4 = tail call i32 @close(i32 noundef %2)
  br label %5

5:                                                ; preds = %3, %1
  ret void
}